target datalayout = "e-m:e-p270:32:32-p271:32:32-p272:64:64-i64:64-i128:128-f80:128-n8:16:32:64-S128"
target triple = "x86_64-pc-linux-gnu"

%struct.pmix_pointer_array_t = type { %struct.pmix_object_t, i32, i32, i32, i32, i32, ptr, ptr }
%struct.pmix_object_t = type { %union.pthread_mutex_t, ptr, i32, %struct.pmix_tma }
%union.pthread_mutex_t = type { %struct.__pthread_mutex_s }
%struct.__pthread_mutex_s = type { i32, i32, i32, i32, i32, i16, i16, %struct.__pthread_internal_list }
%struct.__pthread_internal_list = type { ptr, ptr }
%struct.pmix_tma = type { ptr, ptr, ptr, ptr, ptr, ptr, ptr, ptr }
%struct.pmix_hash_table_t = type { %struct.pmix_object_t, ptr, ptr, i64, i64, i64, i32, i32, i32, i32, ptr }
%struct.pmix_mca_base_var_group_t = type { %struct.pmix_list_item_t, i32, i8, ptr, ptr, ptr, ptr, ptr, %struct.pmix_value_array_t, %struct.pmix_value_array_t }
%struct.pmix_list_item_t = type { %struct.pmix_object_t, ptr, ptr, i32 }
%struct.pmix_value_array_t = type { %struct.pmix_object_t, ptr, i64, i64, i64 }

@pmix_mca_base_var_groups = internal global %struct.pmix_pointer_array_t zeroinitializer, align 8
@pmix_mca_base_var_group_index_hash = internal global %struct.pmix_hash_table_t zeroinitializer, align 8

; Function Attrs: inlinehint nounwind uwtable
define internal ptr @pmix_pointer_array_get_item(ptr noundef %0, i32 noundef %1) #3 {
  %3 = alloca ptr, align 8
  %4 = alloca ptr, align 8
  %5 = alloca i32, align 4
  %6 = alloca ptr, align 8
  %7 = alloca i32, align 4
  store ptr %0, ptr %4, align 8, !tbaa !50
  store i32 %1, ptr %5, align 4, !tbaa !8
  call void @llvm.lifetime.start.p0(i64 8, ptr %6) #14
  %8 = load i32, ptr %5, align 4, !tbaa !8
  %9 = icmp sgt i32 0, %8
  br i1 %9, label %16, label %10

10:                                               ; preds = %2
  %11 = load ptr, ptr %4, align 8, !tbaa !50
  %12 = getelementptr inbounds nuw %struct.pmix_pointer_array_t, ptr %11, i32 0, i32 3
  %13 = load i32, ptr %12, align 8, !tbaa !52
  %14 = load i32, ptr %5, align 4, !tbaa !8
  %15 = icmp sle i32 %13, %14
  br label %16

16:                                               ; preds = %10, %2
  %17 = phi i1 [ true, %2 ], [ %15, %10 ]
  %18 = xor i1 %17, true
  %19 = xor i1 %18, true
  %20 = zext i1 %19 to i32
  %21 = sext i32 %20 to i64
  %22 = call i64 @llvm.expect.i64(i64 %21, i64 0)
  %23 = icmp ne i64 %22, 0
  br i1 %23, label %24, label %25

24:                                               ; preds = %16
  store ptr null, ptr %3, align 8
  store i32 1, ptr %7, align 4
  br label %34

25:                                               ; preds = %16
  %26 = load ptr, ptr %4, align 8, !tbaa !50
  %27 = getelementptr inbounds nuw %struct.pmix_pointer_array_t, ptr %26, i32 0, i32 7
  %28 = load ptr, ptr %27, align 8, !tbaa !55
  %29 = load i32, ptr %5, align 4, !tbaa !8
  %30 = sext i32 %29 to i64
  %31 = getelementptr inbounds ptr, ptr %28, i64 %30
  %32 = load ptr, ptr %31, align 8, !tbaa !45
  store ptr %32, ptr %6, align 8, !tbaa !45
  %33 = load ptr, ptr %6, align 8, !tbaa !45
  store ptr %33, ptr %3, align 8
  store i32 1, ptr %7, align 4
  br label %34

34:                                               ; preds = %25, %24
  call void @llvm.lifetime.end.p0(i64 8, ptr %6) #14
  %35 = load ptr, ptr %3, align 8
  ret ptr %35
}

; Function Attrs: nounwind uwtable
define i32 @pmix_mca_base_var_group_get_internal(i32 noundef %0, ptr noundef %1, i1 noundef zeroext %2) #0 {
  %4 = alloca i32, align 4
  %5 = alloca i32, align 4
  %6 = alloca ptr, align 8
  %7 = alloca i8, align 1
  store i32 %0, ptr %5, align 4, !tbaa !8
  store ptr %1, ptr %6, align 8, !tbaa !59
  %8 = zext i1 %2 to i8
  store i8 %8, ptr %7, align 1, !tbaa !29
  %9 = load i32, ptr %5, align 4, !tbaa !8
  %10 = icmp slt i32 %9, 0
  br i1 %10, label %11, label %12

11:                                               ; preds = %3
  store i32 -46, ptr %4, align 4
  br label %31

12:                                               ; preds = %3
  %13 = load i32, ptr %5, align 4, !tbaa !8
  %14 = call ptr @pmix_pointer_array_get_item(ptr noundef @pmix_mca_base_var_groups, i32 noundef %13)
  %15 = load ptr, ptr %6, align 8, !tbaa !59
  store ptr %14, ptr %15, align 8, !tbaa !3
  %16 = load ptr, ptr %6, align 8, !tbaa !59
  %17 = load ptr, ptr %16, align 8, !tbaa !3
  %18 = icmp eq ptr null, %17
  br i1 %18, label %28, label %19

19:                                               ; preds = %12
  %20 = load i8, ptr %7, align 1, !tbaa !29, !range !30, !noundef !31
  %21 = trunc i8 %20 to i1
  br i1 %21, label %30, label %22

22:                                               ; preds = %19
  %23 = load ptr, ptr %6, align 8, !tbaa !59
  %24 = load ptr, ptr %23, align 8, !tbaa !3
  %25 = getelementptr inbounds nuw %struct.pmix_mca_base_var_group_t, ptr %24, i32 0, i32 2
  %26 = load i8, ptr %25, align 4, !tbaa !61, !range !30, !noundef !31
  %27 = trunc i8 %26 to i1
  br i1 %27, label %30, label %28

28:                                               ; preds = %22, %12
  %29 = load ptr, ptr %6, align 8, !tbaa !59
  store ptr null, ptr %29, align 8, !tbaa !3
  store i32 -46, ptr %4, align 4
  br label %31

30:                                               ; preds = %22, %19
  store i32 0, ptr %4, align 4
  br label %31

31:                                               ; preds = %30, %28, %11
  %32 = load i32, ptr %4, align 4
  ret i32 %32
}

; Function Attrs: nounwind uwtable
define internal i32 @group_find_by_name(ptr noundef %0, ptr noundef %1, i1 noundef zeroext %2) #0 {
  %4 = alloca i32, align 4
  %5 = alloca ptr, align 8
  %6 = alloca ptr, align 8
  %7 = alloca i8, align 1
  %8 = alloca ptr, align 8
  %9 = alloca ptr, align 8
  %10 = alloca i32, align 4
  %11 = alloca i32, align 4
  store ptr %0, ptr %5, align 8, !tbaa !62
  store ptr %1, ptr %6, align 8, !tbaa !66
  %12 = zext i1 %2 to i8
  store i8 %12, ptr %7, align 1, !tbaa !29
  call void @llvm.lifetime.start.p0(i64 8, ptr %8) #14
  call void @llvm.lifetime.start.p0(i64 8, ptr %9) #14
  call void @llvm.lifetime.start.p0(i64 4, ptr %10) #14
  %13 = load ptr, ptr %5, align 8, !tbaa !62
  %14 = load ptr, ptr %5, align 8, !tbaa !62
  %15 = call i64 @strlen(ptr noundef %14) #17
  %16 = call i32 @pmix_hash_table_get_value_ptr(ptr noundef @pmix_mca_base_var_group_index_hash, ptr noundef %13, i64 noundef %15, ptr noundef %9)
  store i32 %16, ptr %10, align 4, !tbaa !8
  %17 = load i32, ptr %10, align 4, !tbaa !8
  %18 = icmp ne i32 0, %17
  br i1 %18, label %19, label %21

19:                                               ; preds = %3
  %20 = load i32, ptr %10, align 4, !tbaa !8
  store i32 %20, ptr %4, align 4
  store i32 1, ptr %11, align 4
  br label %46

21:                                               ; preds = %3
  %22 = load ptr, ptr %9, align 8, !tbaa !45
  %23 = ptrtoint ptr %22 to i64
  %24 = trunc i64 %23 to i32
  %25 = load i8, ptr %7, align 1, !tbaa !29, !range !30, !noundef !31
  %26 = trunc i8 %25 to i1
  %27 = call i32 @pmix_mca_base_var_group_get_internal(i32 noundef %24, ptr noundef %8, i1 noundef zeroext %26)
  store i32 %27, ptr %10, align 4, !tbaa !8
  %28 = load i32, ptr %10, align 4, !tbaa !8
  %29 = icmp ne i32 0, %28
  br i1 %29, label %30, label %32

30:                                               ; preds = %21
  %31 = load i32, ptr %10, align 4, !tbaa !8
  store i32 %31, ptr %4, align 4
  store i32 1, ptr %11, align 4
  br label %46

32:                                               ; preds = %21
  %33 = load i8, ptr %7, align 1, !tbaa !29, !range !30, !noundef !31
  %34 = trunc i8 %33 to i1
  br i1 %34, label %40, label %35

35:                                               ; preds = %32
  %36 = load ptr, ptr %8, align 8, !tbaa !3
  %37 = getelementptr inbounds nuw %struct.pmix_mca_base_var_group_t, ptr %36, i32 0, i32 2
  %38 = load i8, ptr %37, align 4, !tbaa !61, !range !30, !noundef !31
  %39 = trunc i8 %38 to i1
  br i1 %39, label %40, label %45

40:                                               ; preds = %35, %32
  %41 = load ptr, ptr %9, align 8, !tbaa !45
  %42 = ptrtoint ptr %41 to i64
  %43 = trunc i64 %42 to i32
  %44 = load ptr, ptr %6, align 8, !tbaa !66
  store i32 %43, ptr %44, align 4, !tbaa !8
  store i32 0, ptr %4, align 4
  store i32 1, ptr %11, align 4
  br label %46

45:                                               ; preds = %35
  store i32 -46, ptr %4, align 4
  store i32 1, ptr %11, align 4
  br label %46

46:                                               ; preds = %45, %40, %30, %19
  call void @llvm.lifetime.end.p0(i64 4, ptr %10) #14
  call void @llvm.lifetime.end.p0(i64 8, ptr %9) #14
  call void @llvm.lifetime.end.p0(i64 8, ptr %8) #14
  %47 = load i32, ptr %4, align 4
  ret i32 %47
}

; Function Attrs: nounwind uwtable
define i32 @pmix_mca_base_var_group_find_by_name(ptr noundef %0, ptr noundef %1) #0 {
  %3 = alloca ptr, align 8
  %4 = alloca ptr, align 8
  store ptr %0, ptr %3, align 8, !tbaa !62
  store ptr %1, ptr %4, align 8, !tbaa !66
  %5 = load ptr, ptr %3, align 8, !tbaa !62
  %6 = load ptr, ptr %4, align 8, !tbaa !66
  %7 = call i32 @group_find_by_name(ptr noundef %5, ptr noundef %6, i1 noundef zeroext false)
  ret i32 %7
}