; Function Attrs: nounwind uwtable
define i32 @pmix_mca_base_var_group_find_by_name(ptr noundef %0, ptr noundef writeonly captures(none) %1) local_unnamed_addr #0 {
  %3 = alloca ptr, align 8
  call void @llvm.lifetime.start.p0(i64 8, ptr nonnull %3) #17
  %4 = tail call i64 @strlen(ptr noundef nonnull dereferenceable(1) %0) #22
  %5 = call i32 @pmix_hash_table_get_value_ptr(ptr noundef nonnull @pmix_mca_base_var_group_index_hash, ptr noundef nonnull %0, i64 noundef %4, ptr noundef nonnull %3) #17
  %.not.i = icmp eq i32 %5, 0
  br i1 %.not.i, label %6, label %group_find_by_name.exit

6:                                                ; preds = %2
  %7 = load ptr, ptr %3, align 8, !tbaa !18
  %8 = ptrtoint ptr %7 to i64
  %9 = trunc i64 %8 to i32
  %10 = icmp sgt i32 %9, -1
  %11 = load i32, ptr getelementptr inbounds nuw (i8, ptr @pmix_mca_base_var_groups, i64 128), align 8
  %.not.i.i = icmp sgt i32 %11, %9
  %or.cond.i = select i1 %10, i1 %.not.i.i, i1 false
  br i1 %or.cond.i, label %pmix_pointer_array_get_item.exit.i.i, label %group_find_by_name.exit, !prof !50

pmix_pointer_array_get_item.exit.i.i:             ; preds = %6
  %12 = load ptr, ptr getelementptr inbounds nuw (i8, ptr @pmix_mca_base_var_groups, i64 152), align 8, !tbaa !41
  %13 = and i64 %8, 2147483647
  %14 = getelementptr inbounds nuw ptr, ptr %12, i64 %13
  %15 = load ptr, ptr %14, align 8, !tbaa !18
  %16 = icmp eq ptr %15, null
  br i1 %16, label %group_find_by_name.exit, label %17

17:                                               ; preds = %pmix_pointer_array_get_item.exit.i.i
  %18 = getelementptr inbounds nuw i8, ptr %15, i64 148
  %19 = load i8, ptr %18, align 4, !tbaa !46, !range !47, !noundef !48
  %20 = trunc nuw i8 %19 to i1
  br i1 %20, label %.thread.i, label %group_find_by_name.exit

.thread.i:                                        ; preds = %17
  store i32 %9, ptr %1, align 4, !tbaa !3
  br label %group_find_by_name.exit

group_find_by_name.exit:                          ; preds = %2, %6, %pmix_pointer_array_get_item.exit.i.i, %17, %.thread.i
  %.0.i = phi i32 [ 0, %.thread.i ], [ %5, %2 ], [ -46, %6 ], [ -46, %17 ], [ -46, %pmix_pointer_array_get_item.exit.i.i ]
  call void @llvm.lifetime.end.p0(i64 8, ptr nonnull %3) #17
  ret i32 %.0.i
}